; Function Attrs: mustprogress nofree norecurse nosync nounwind willreturn memory(read, inaccessiblemem: none) uwtable
define i32 @Tim_ManBoxOutputFirst(ptr noundef readonly captures(none) %0, i32 noundef %1) local_unnamed_addr #3 {
  %.val3 = load ptr, ptr %0, align 8, !tbaa !3
  %3 = getelementptr i8, ptr %.val3, i64 8
  %.val3.val = load ptr, ptr %3, align 8, !tbaa !15
  %4 = sext i32 %1 to i64
  %5 = getelementptr inbounds ptr, ptr %.val3.val, i64 %4
  %6 = load ptr, ptr %5, align 8, !tbaa !19
  %7 = getelementptr inbounds nuw i8, ptr %6, i64 28
  %8 = getelementptr inbounds nuw i8, ptr %6, i64 8
  %9 = load i32, ptr %8, align 4, !tbaa !21
  %10 = sext i32 %9 to i64
  %11 = getelementptr inbounds [0 x i32], ptr %7, i64 0, i64 %10
  %12 = load i32, ptr %11, align 4, !tbaa !26
  ret i32 %12
}